target datalayout = "e-m:e-p270:32:32-p271:32:32-p272:64:64-i64:64-i128:128-f80:128-n8:16:32:64-S128"
target triple = "x86_64-pc-linux-gnu"

%struct.gmac_data_st = type { ptr, ptr, %struct.PROV_CIPHER }
%struct.PROV_CIPHER = type { ptr, ptr, ptr }
%struct.ossl_param_st = type { ptr, i32, ptr, i64, i64 }

@.str = private unnamed_addr constant [54 x i8] c"../openssl/providers/implementations/macs/gmac_prov.c\00", align 1
@__func__.gmac_setkey = private unnamed_addr constant [12 x i8] c"gmac_setkey\00", align 1
@.str.4 = private unnamed_addr constant [7 x i8] c"cipher\00", align 1
@.str.6 = private unnamed_addr constant [4 x i8] c"key\00", align 1
@.str.7 = private unnamed_addr constant [3 x i8] c"iv\00", align 1
@__func__.gmac_set_ctx_params = private unnamed_addr constant [20 x i8] c"gmac_set_ctx_params\00", align 1

; Function Attrs: nounwind uwtable
define internal i32 @gmac_setkey(ptr noundef %0, ptr noundef %1, i64 noundef %2) #0 {
  %4 = alloca i32, align 4
  %5 = alloca ptr, align 8
  %6 = alloca ptr, align 8
  %7 = alloca i64, align 8
  %8 = alloca ptr, align 8
  %9 = alloca i32, align 4
  store ptr %0, ptr %5, align 8, !tbaa !7
  store ptr %1, ptr %6, align 8, !tbaa !16
  store i64 %2, ptr %7, align 8, !tbaa !18
  call void @llvm.lifetime.start.p0(i64 8, ptr %8) #6
  %10 = load ptr, ptr %5, align 8, !tbaa !7
  %11 = getelementptr inbounds nuw %struct.gmac_data_st, ptr %10, i32 0, i32 1
  %12 = load ptr, ptr %11, align 8, !tbaa !9
  store ptr %12, ptr %8, align 8, !tbaa !22
  %13 = load i64, ptr %7, align 8, !tbaa !18
  %14 = load ptr, ptr %8, align 8, !tbaa !22
  %15 = call i32 @EVP_CIPHER_CTX_get_key_length(ptr noundef %14)
  %16 = sext i32 %15 to i64
  %17 = icmp ne i64 %13, %16
  br i1 %17, label %18, label %19

18:                                               ; preds = %3
  call void @ERR_new()
  call void @ERR_set_debug(ptr noundef @.str, i32 noundef 106, ptr noundef @__func__.gmac_setkey)
  call void (i32, i32, ptr, ...) @ERR_set_error(i32 noundef 57, i32 noundef 105, ptr noundef null)
  store i32 0, ptr %4, align 4
  store i32 1, ptr %9, align 4
  br label %26

19:                                               ; preds = %3
  %20 = load ptr, ptr %8, align 8, !tbaa !22
  %21 = load ptr, ptr %6, align 8, !tbaa !16
  %22 = call i32 @EVP_EncryptInit_ex(ptr noundef %20, ptr noundef null, ptr noundef null, ptr noundef %21, ptr noundef null)
  %23 = icmp ne i32 %22, 0
  br i1 %23, label %25, label %24

24:                                               ; preds = %19
  store i32 0, ptr %4, align 4
  store i32 1, ptr %9, align 4
  br label %26

25:                                               ; preds = %19
  store i32 1, ptr %4, align 4
  store i32 1, ptr %9, align 4
  br label %26

26:                                               ; preds = %25, %24, %18
  call void @llvm.lifetime.end.p0(i64 8, ptr %8) #6
  %27 = load i32, ptr %4, align 4
  ret i32 %27
}

; Function Attrs: inlinehint nounwind uwtable
define internal i32 @ossl_param_is_empty(ptr noundef %0) #5 {
  %2 = alloca ptr, align 8
  store ptr %0, ptr %2, align 8, !tbaa !20
  %3 = load ptr, ptr %2, align 8, !tbaa !20
  %4 = icmp eq ptr %3, null
  br i1 %4, label %10, label %5

5:                                                ; preds = %1
  %6 = load ptr, ptr %2, align 8, !tbaa !20
  %7 = getelementptr inbounds nuw %struct.ossl_param_st, ptr %6, i32 0, i32 0
  %8 = load ptr, ptr %7, align 8, !tbaa !36
  %9 = icmp eq ptr %8, null
  br label %10

10:                                               ; preds = %5, %1
  %11 = phi i1 [ true, %1 ], [ %9, %5 ]
  %12 = zext i1 %11 to i32
  ret i32 %12
}

; Function Attrs: nounwind uwtable
define internal i32 @gmac_set_ctx_params(ptr noundef %0, ptr noundef %1) #0 {
  %3 = alloca i32, align 4
  %4 = alloca ptr, align 8
  %5 = alloca ptr, align 8
  %6 = alloca ptr, align 8
  %7 = alloca ptr, align 8
  %8 = alloca ptr, align 8
  %9 = alloca ptr, align 8
  %10 = alloca i32, align 4
  store ptr %0, ptr %4, align 8, !tbaa !3
  store ptr %1, ptr %5, align 8, !tbaa !20
  call void @llvm.lifetime.start.p0(i64 8, ptr %6) #6
  %11 = load ptr, ptr %4, align 8, !tbaa !3
  store ptr %11, ptr %6, align 8, !tbaa !7
  call void @llvm.lifetime.start.p0(i64 8, ptr %7) #6
  %12 = load ptr, ptr %6, align 8, !tbaa !7
  %13 = getelementptr inbounds nuw %struct.gmac_data_st, ptr %12, i32 0, i32 1
  %14 = load ptr, ptr %13, align 8, !tbaa !9
  store ptr %14, ptr %7, align 8, !tbaa !22
  call void @llvm.lifetime.start.p0(i64 8, ptr %8) #6
  %15 = load ptr, ptr %6, align 8, !tbaa !7
  %16 = getelementptr inbounds nuw %struct.gmac_data_st, ptr %15, i32 0, i32 0
  %17 = load ptr, ptr %16, align 8, !tbaa !15
  %18 = call ptr @ossl_prov_ctx_get0_libctx(ptr noundef %17)
  store ptr %18, ptr %8, align 8, !tbaa !30
  call void @llvm.lifetime.start.p0(i64 8, ptr %9) #6
  %19 = load ptr, ptr %5, align 8, !tbaa !20
  %20 = call i32 @ossl_param_is_empty(ptr noundef %19)
  %21 = icmp ne i32 %20, 0
  br i1 %21, label %22, label %23

22:                                               ; preds = %2
  store i32 1, ptr %3, align 4
  store i32 1, ptr %10, align 4
  br label %107

23:                                               ; preds = %2
  %24 = load ptr, ptr %7, align 8, !tbaa !22
  %25 = icmp eq ptr %24, null
  br i1 %25, label %26, label %27

26:                                               ; preds = %23
  store i32 0, ptr %3, align 4
  store i32 1, ptr %10, align 4
  br label %107

27:                                               ; preds = %23
  %28 = load ptr, ptr %5, align 8, !tbaa !20
  %29 = call ptr @OSSL_PARAM_locate_const(ptr noundef %28, ptr noundef @.str.4)
  store ptr %29, ptr %9, align 8, !tbaa !20
  %30 = icmp ne ptr %29, null
  br i1 %30, label %31, label %58

31:                                               ; preds = %27
  %32 = load ptr, ptr %6, align 8, !tbaa !7
  %33 = getelementptr inbounds nuw %struct.gmac_data_st, ptr %32, i32 0, i32 2
  %34 = load ptr, ptr %5, align 8, !tbaa !20
  %35 = load ptr, ptr %8, align 8, !tbaa !30
  %36 = call i32 @ossl_prov_cipher_load_from_params(ptr noundef %33, ptr noundef %34, ptr noundef %35)
  %37 = icmp ne i32 %36, 0
  br i1 %37, label %39, label %38

38:                                               ; preds = %31
  store i32 0, ptr %3, align 4
  store i32 1, ptr %10, align 4
  br label %107

39:                                               ; preds = %31
  %40 = load ptr, ptr %6, align 8, !tbaa !7
  %41 = getelementptr inbounds nuw %struct.gmac_data_st, ptr %40, i32 0, i32 2
  %42 = call ptr @ossl_prov_cipher_cipher(ptr noundef %41)
  %43 = call i32 @EVP_CIPHER_get_mode(ptr noundef %42)
  %44 = icmp ne i32 %43, 6
  br i1 %44, label %45, label %46

45:                                               ; preds = %39
  call void @ERR_new()
  call void @ERR_set_debug(ptr noundef @.str, i32 noundef 220, ptr noundef @__func__.gmac_set_ctx_params)
  call void (i32, i32, ptr, ...) @ERR_set_error(i32 noundef 57, i32 noundef 125, ptr noundef null)
  store i32 0, ptr %3, align 4
  store i32 1, ptr %10, align 4
  br label %107

46:                                               ; preds = %39
  %47 = load ptr, ptr %7, align 8, !tbaa !22
  %48 = load ptr, ptr %6, align 8, !tbaa !7
  %49 = getelementptr inbounds nuw %struct.gmac_data_st, ptr %48, i32 0, i32 2
  %50 = call ptr @ossl_prov_cipher_cipher(ptr noundef %49)
  %51 = load ptr, ptr %6, align 8, !tbaa !7
  %52 = getelementptr inbounds nuw %struct.gmac_data_st, ptr %51, i32 0, i32 2
  %53 = call ptr @ossl_prov_cipher_engine(ptr noundef %52)
  %54 = call i32 @EVP_EncryptInit_ex(ptr noundef %47, ptr noundef %50, ptr noundef %53, ptr noundef null, ptr noundef null)
  %55 = icmp ne i32 %54, 0
  br i1 %55, label %57, label %56

56:                                               ; preds = %46
  store i32 0, ptr %3, align 4
  store i32 1, ptr %10, align 4
  br label %107

57:                                               ; preds = %46
  br label %58

58:                                               ; preds = %57, %27
  %59 = load ptr, ptr %5, align 8, !tbaa !20
  %60 = call ptr @OSSL_PARAM_locate_const(ptr noundef %59, ptr noundef @.str.6)
  store ptr %60, ptr %9, align 8, !tbaa !20
  %61 = icmp ne ptr %60, null
  br i1 %61, label %62, label %79

62:                                               ; preds = %58
  %63 = load ptr, ptr %9, align 8, !tbaa !20
  %64 = getelementptr inbounds nuw %struct.ossl_param_st, ptr %63, i32 0, i32 1
  %65 = load i32, ptr %64, align 8, !tbaa !32
  %66 = icmp ne i32 %65, 5
  br i1 %66, label %77, label %67

67:                                               ; preds = %62
  %68 = load ptr, ptr %6, align 8, !tbaa !7
  %69 = load ptr, ptr %9, align 8, !tbaa !20
  %70 = getelementptr inbounds nuw %struct.ossl_param_st, ptr %69, i32 0, i32 2
  %71 = load ptr, ptr %70, align 8, !tbaa !34
  %72 = load ptr, ptr %9, align 8, !tbaa !20
  %73 = getelementptr inbounds nuw %struct.ossl_param_st, ptr %72, i32 0, i32 3
  %74 = load i64, ptr %73, align 8, !tbaa !35
  %75 = call i32 @gmac_setkey(ptr noundef %68, ptr noundef %71, i64 noundef %74)
  %76 = icmp ne i32 %75, 0
  br i1 %76, label %78, label %77

77:                                               ; preds = %67, %62
  store i32 0, ptr %3, align 4
  store i32 1, ptr %10, align 4
  br label %107

78:                                               ; preds = %67
  br label %79

79:                                               ; preds = %78, %58
  %80 = load ptr, ptr %5, align 8, !tbaa !20
  %81 = call ptr @OSSL_PARAM_locate_const(ptr noundef %80, ptr noundef @.str.7)
  store ptr %81, ptr %9, align 8, !tbaa !20
  %82 = icmp ne ptr %81, null
  br i1 %82, label %83, label %106

83:                                               ; preds = %79
  %84 = load ptr, ptr %9, align 8, !tbaa !20
  %85 = getelementptr inbounds nuw %struct.ossl_param_st, ptr %84, i32 0, i32 1
  %86 = load i32, ptr %85, align 8, !tbaa !32
  %87 = icmp ne i32 %86, 5
  br i1 %87, label %88, label %89

88:                                               ; preds = %83
  store i32 0, ptr %3, align 4
  store i32 1, ptr %10, align 4
  br label %107

89:                                               ; preds = %83
  %90 = load ptr, ptr %7, align 8, !tbaa !22
  %91 = load ptr, ptr %9, align 8, !tbaa !20
  %92 = getelementptr inbounds nuw %struct.ossl_param_st, ptr %91, i32 0, i32 3
  %93 = load i64, ptr %92, align 8, !tbaa !35
  %94 = trunc i64 %93 to i32
  %95 = call i32 @EVP_CIPHER_CTX_ctrl(ptr noundef %90, i32 noundef 9, i32 noundef %94, ptr noundef null)
  %96 = icmp sle i32 %95, 0
  br i1 %96, label %104, label %97

97:                                               ; preds = %89
  %98 = load ptr, ptr %7, align 8, !tbaa !22
  %99 = load ptr, ptr %9, align 8, !tbaa !20
  %100 = getelementptr inbounds nuw %struct.ossl_param_st, ptr %99, i32 0, i32 2
  %101 = load ptr, ptr %100, align 8, !tbaa !34
  %102 = call i32 @EVP_EncryptInit_ex(ptr noundef %98, ptr noundef null, ptr noundef null, ptr noundef null, ptr noundef %101)
  %103 = icmp ne i32 %102, 0
  br i1 %103, label %105, label %104

104:                                              ; preds = %97, %89
  store i32 0, ptr %3, align 4
  store i32 1, ptr %10, align 4
  br label %107

105:                                              ; preds = %97
  br label %106

106:                                              ; preds = %105, %79
  store i32 1, ptr %3, align 4
  store i32 1, ptr %10, align 4
  br label %107

107:                                              ; preds = %106, %104, %88, %77, %56, %45, %38, %26, %22
  call void @llvm.lifetime.end.p0(i64 8, ptr %9) #6
  call void @llvm.lifetime.end.p0(i64 8, ptr %8) #6
  call void @llvm.lifetime.end.p0(i64 8, ptr %7) #6
  call void @llvm.lifetime.end.p0(i64 8, ptr %6) #6
  %108 = load i32, ptr %3, align 4
  ret i32 %108
}