; Function Attrs: nounwind uwtable
define internal range(i32 0, 2) i32 @gmac_set_ctx_params(ptr noundef %0, ptr noundef %1) #0 {
  %3 = getelementptr inbounds nuw i8, ptr %0, i64 8
  %4 = load ptr, ptr %3, align 8, !tbaa !3
  %5 = load ptr, ptr %0, align 8, !tbaa !12
  %6 = tail call ptr @ossl_prov_ctx_get0_libctx(ptr noundef %5) #5
  %7 = icmp eq ptr %1, null
  br i1 %7, label %ossl_param_is_empty.exit.thread, label %ossl_param_is_empty.exit

ossl_param_is_empty.exit:                         ; preds = %2
  %8 = load ptr, ptr %1, align 8, !tbaa !19
  %.not = icmp eq ptr %8, null
  br i1 %.not, label %ossl_param_is_empty.exit.thread, label %9

9:                                                ; preds = %ossl_param_is_empty.exit
  %10 = icmp eq ptr %4, null
  br i1 %10, label %ossl_param_is_empty.exit.thread, label %11

11:                                               ; preds = %9
  %12 = tail call ptr @OSSL_PARAM_locate_const(ptr noundef nonnull %1, ptr noundef nonnull @.str.4) #5
  %.not27 = icmp eq ptr %12, null
  br i1 %.not27, label %24, label %13

13:                                               ; preds = %11
  %14 = getelementptr inbounds nuw i8, ptr %0, i64 16
  %15 = tail call i32 @ossl_prov_cipher_load_from_params(ptr noundef nonnull %14, ptr noundef nonnull %1, ptr noundef %6) #5
  %.not28 = icmp eq i32 %15, 0
  br i1 %.not28, label %ossl_param_is_empty.exit.thread, label %16

16:                                               ; preds = %13
  %17 = tail call ptr @ossl_prov_cipher_cipher(ptr noundef nonnull %14) #5
  %18 = tail call i32 @EVP_CIPHER_get_mode(ptr noundef %17) #5
  %.not29 = icmp eq i32 %18, 6
  br i1 %.not29, label %20, label %19

19:                                               ; preds = %16
  tail call void @ERR_new() #5
  tail call void @ERR_set_debug(ptr noundef nonnull @.str, i32 noundef 220, ptr noundef nonnull @__func__.gmac_set_ctx_params) #5
  tail call void (i32, i32, ptr, ...) @ERR_set_error(i32 noundef 57, i32 noundef 125, ptr noundef null) #5
  br label %ossl_param_is_empty.exit.thread

20:                                               ; preds = %16
  %21 = tail call ptr @ossl_prov_cipher_cipher(ptr noundef nonnull %14) #5
  %22 = tail call ptr @ossl_prov_cipher_engine(ptr noundef nonnull %14) #5
  %23 = tail call i32 @EVP_EncryptInit_ex(ptr noundef nonnull %4, ptr noundef %21, ptr noundef %22, ptr noundef null, ptr noundef null) #5
  %.not30 = icmp eq i32 %23, 0
  br i1 %.not30, label %ossl_param_is_empty.exit.thread, label %24

24:                                               ; preds = %20, %11
  %25 = tail call ptr @OSSL_PARAM_locate_const(ptr noundef nonnull %1, ptr noundef nonnull @.str.6) #5
  %.not31 = icmp eq ptr %25, null
  br i1 %.not31, label %37, label %26

26:                                               ; preds = %24
  %27 = getelementptr inbounds nuw i8, ptr %25, i64 8
  %28 = load i32, ptr %27, align 8, !tbaa !22
  %.not32 = icmp eq i32 %28, 5
  br i1 %.not32, label %29, label %ossl_param_is_empty.exit.thread

29:                                               ; preds = %26
  %30 = getelementptr inbounds nuw i8, ptr %25, i64 16
  %31 = load ptr, ptr %30, align 8, !tbaa !23
  %32 = getelementptr inbounds nuw i8, ptr %25, i64 24
  %33 = load i64, ptr %32, align 8, !tbaa !24
  %.val = load ptr, ptr %3, align 8, !tbaa !3
  %34 = tail call i32 @EVP_CIPHER_CTX_get_key_length(ptr noundef %.val) #5
  %35 = sext i32 %34 to i64
  %.not.i = icmp eq i64 %33, %35
  br i1 %.not.i, label %gmac_setkey.exit, label %gmac_setkey.exit.thread

gmac_setkey.exit.thread:                          ; preds = %29
  tail call void @ERR_new() #5
  tail call void @ERR_set_debug(ptr noundef nonnull @.str, i32 noundef 106, ptr noundef nonnull @__func__.gmac_setkey) #5
  tail call void (i32, i32, ptr, ...) @ERR_set_error(i32 noundef 57, i32 noundef 105, ptr noundef null) #5
  br label %ossl_param_is_empty.exit.thread

gmac_setkey.exit:                                 ; preds = %29
  %36 = tail call i32 @EVP_EncryptInit_ex(ptr noundef %.val, ptr noundef null, ptr noundef null, ptr noundef %31, ptr noundef null) #5
  %.not5.i.not = icmp eq i32 %36, 0
  br i1 %.not5.i.not, label %ossl_param_is_empty.exit.thread, label %37

37:                                               ; preds = %gmac_setkey.exit, %24
  %38 = tail call ptr @OSSL_PARAM_locate_const(ptr noundef nonnull %1, ptr noundef nonnull @.str.7) #5
  %.not34 = icmp eq ptr %38, null
  br i1 %.not34, label %52, label %39

39:                                               ; preds = %37
  %40 = getelementptr inbounds nuw i8, ptr %38, i64 8
  %41 = load i32, ptr %40, align 8, !tbaa !22
  %.not35 = icmp eq i32 %41, 5
  br i1 %.not35, label %42, label %ossl_param_is_empty.exit.thread

42:                                               ; preds = %39
  %43 = getelementptr inbounds nuw i8, ptr %38, i64 24
  %44 = load i64, ptr %43, align 8, !tbaa !24
  %45 = trunc i64 %44 to i32
  %46 = tail call i32 @EVP_CIPHER_CTX_ctrl(ptr noundef nonnull %4, i32 noundef 9, i32 noundef %45, ptr noundef null) #5
  %47 = icmp slt i32 %46, 1
  br i1 %47, label %ossl_param_is_empty.exit.thread, label %48

48:                                               ; preds = %42
  %49 = getelementptr inbounds nuw i8, ptr %38, i64 16
  %50 = load ptr, ptr %49, align 8, !tbaa !23
  %51 = tail call i32 @EVP_EncryptInit_ex(ptr noundef nonnull %4, ptr noundef null, ptr noundef null, ptr noundef null, ptr noundef %50) #5
  %.not36 = icmp eq i32 %51, 0
  br i1 %.not36, label %ossl_param_is_empty.exit.thread, label %52

52:                                               ; preds = %48, %37
  br label %ossl_param_is_empty.exit.thread

ossl_param_is_empty.exit.thread:                  ; preds = %2, %gmac_setkey.exit.thread, %42, %48, %39, %26, %gmac_setkey.exit, %20, %13, %9, %ossl_param_is_empty.exit, %52, %19
  %.0 = phi i32 [ 0, %19 ], [ 1, %52 ], [ 1, %ossl_param_is_empty.exit ], [ 0, %9 ], [ 0, %13 ], [ 0, %20 ], [ 0, %gmac_setkey.exit ], [ 0, %26 ], [ 0, %39 ], [ 0, %48 ], [ 0, %42 ], [ 0, %gmac_setkey.exit.thread ], [ 1, %2 ]
  ret i32 %.0
}